; Function Attrs: mustprogress uwtable
define dso_local i32 @b3OpenCLUtils_getNumPlatforms(ptr noundef writeonly captures(address_is_null) %0) local_unnamed_addr #0 {
  %2 = alloca [10 x ptr], align 16
  %3 = alloca i32, align 4
  %4 = tail call i32 @clewInit(ptr noundef nonnull @.str.6)
  %.not.i = icmp eq i32 %4, 0
  br i1 %.not.i, label %5, label %6

5:                                                ; preds = %1
  tail call void @clewExit()
  br label %6

6:                                                ; preds = %5, %1
  %.0.i = phi ptr [ @.str.6, %5 ], [ @.str.7, %1 ]
  %7 = tail call i32 @clewInit(ptr noundef nonnull %.0.i)
  %.not7.i = icmp eq i32 %7, 0
  br i1 %.not7.i, label %9, label %8

8:                                                ; preds = %6
  tail call void (ptr, ...) @b3OutputErrorMessageVarArgsInternal(ptr noundef nonnull @.str.4, ptr noundef nonnull @.str.2, i32 noundef 119)
  tail call void (ptr, ...) @b3OutputErrorMessageVarArgsInternal(ptr noundef nonnull @.str.8, i32 noundef %7)
  br label %_Z22b3OpenCLUtils_clewInitv.exit

9:                                                ; preds = %6
  tail call void (ptr, ...) @b3OutputPrintfVarArgsInternal(ptr noundef nonnull @.str.9, ptr noundef nonnull %.0.i)
  br label %_Z22b3OpenCLUtils_clewInitv.exit

_Z22b3OpenCLUtils_clewInitv.exit:                 ; preds = %8, %9
  call void @llvm.lifetime.start.p0(i64 80, ptr nonnull %2) #12
  call void @llvm.memset.p0.i64(ptr noundef nonnull align 16 dereferenceable(80) %2, i8 0, i64 80, i1 false)
  call void @llvm.lifetime.start.p0(i64 4, ptr nonnull %3) #12
  store i32 0, ptr %3, align 4, !tbaa !4
  %10 = load ptr, ptr @__clewGetPlatformIDs, align 8, !tbaa !8
  %11 = call i32 %10(i32 noundef 10, ptr noundef nonnull %2, ptr noundef nonnull %3)
  %12 = icmp ne i32 %11, 0
  %13 = icmp ne ptr %0, null
  %or.cond = and i1 %13, %12
  br i1 %or.cond, label %14, label %15

14:                                               ; preds = %_Z22b3OpenCLUtils_clewInitv.exit
  store i32 %11, ptr %0, align 4, !tbaa !4
  br label %15

15:                                               ; preds = %14, %_Z22b3OpenCLUtils_clewInitv.exit
  %16 = load i32, ptr %3, align 4, !tbaa !4
  call void @llvm.lifetime.end.p0(i64 4, ptr nonnull %3) #12
  call void @llvm.lifetime.end.p0(i64 80, ptr nonnull %2) #12
  ret i32 %16
}